target datalayout = "e-m:e-p270:32:32-p271:32:32-p272:64:64-i64:64-i128:128-f80:128-n8:16:32:64-S128"
target triple = "x86_64-pc-linux-gnu"

%struct.lzw_stream_s = type { ptr, i32, i32, ptr, i32, i32, ptr, i32, ptr }
%struct.lzw_internal_state = type { i16, i64, i64, i64, i64, ptr, ptr, ptr, ptr, ptr }
%struct.code_ent = type { ptr, i16, i8, i8 }

@.str = private unnamed_addr constant [25 x i8] c"failed to allocate state\00", align 1
@.str.1 = private unnamed_addr constant [30 x i8] c"failed to allocate code table\00", align 1

; Function Attrs: nounwind uwtable
define i32 @lzwInit(ptr noundef %0) #0 {
  %2 = alloca i32, align 4
  %3 = alloca ptr, align 8
  %4 = alloca ptr, align 8
  %5 = alloca i16, align 2
  store ptr %0, ptr %3, align 8
  %6 = call noalias ptr @malloc(i64 noundef 80) #4
  store ptr %6, ptr %4, align 8
  %7 = load ptr, ptr %4, align 8
  %8 = icmp eq ptr %7, null
  br i1 %8, label %9, label %12

9:                                                ; preds = %1
  %10 = load ptr, ptr %3, align 8
  %11 = getelementptr inbounds %struct.lzw_stream_s, ptr %10, i32 0, i32 6
  store ptr @.str, ptr %11, align 8
  store i32 -4, ptr %2, align 4
  br label %101

12:                                               ; preds = %1
  %13 = load ptr, ptr %4, align 8
  %14 = getelementptr inbounds %struct.lzw_internal_state, ptr %13, i32 0, i32 0
  store i16 9, ptr %14, align 8
  %15 = load ptr, ptr %4, align 8
  %16 = getelementptr inbounds %struct.lzw_internal_state, ptr %15, i32 0, i32 1
  store i64 0, ptr %16, align 8
  %17 = load ptr, ptr %4, align 8
  %18 = getelementptr inbounds %struct.lzw_internal_state, ptr %17, i32 0, i32 2
  store i64 0, ptr %18, align 8
  %19 = call ptr @cli_max_calloc(i64 noundef 16384, i64 noundef 16)
  %20 = load ptr, ptr %4, align 8
  %21 = getelementptr inbounds %struct.lzw_internal_state, ptr %20, i32 0, i32 9
  store ptr %19, ptr %21, align 8
  %22 = load ptr, ptr %4, align 8
  %23 = getelementptr inbounds %struct.lzw_internal_state, ptr %22, i32 0, i32 9
  %24 = load ptr, ptr %23, align 8
  %25 = icmp eq ptr %24, null
  br i1 %25, label %26, label %30

26:                                               ; preds = %12
  %27 = load ptr, ptr %4, align 8
  call void @free(ptr noundef %27) #5
  %28 = load ptr, ptr %3, align 8
  %29 = getelementptr inbounds %struct.lzw_stream_s, ptr %28, i32 0, i32 6
  store ptr @.str.1, ptr %29, align 8
  store i32 -4, ptr %2, align 4
  br label %101

30:                                               ; preds = %12
  store i16 0, ptr %5, align 2
  br label %31

31:                                               ; preds = %68, %30
  %32 = load i16, ptr %5, align 2
  %33 = zext i16 %32 to i32
  %34 = icmp slt i32 %33, 256
  br i1 %34, label %35, label %71

35:                                               ; preds = %31
  %36 = load ptr, ptr %4, align 8
  %37 = getelementptr inbounds %struct.lzw_internal_state, ptr %36, i32 0, i32 9
  %38 = load ptr, ptr %37, align 8
  %39 = load i16, ptr %5, align 2
  %40 = zext i16 %39 to i64
  %41 = getelementptr inbounds %struct.code_ent, ptr %38, i64 %40
  %42 = getelementptr inbounds %struct.code_ent, ptr %41, i32 0, i32 0
  store ptr null, ptr %42, align 8
  %43 = load ptr, ptr %4, align 8
  %44 = getelementptr inbounds %struct.lzw_internal_state, ptr %43, i32 0, i32 9
  %45 = load ptr, ptr %44, align 8
  %46 = load i16, ptr %5, align 2
  %47 = zext i16 %46 to i64
  %48 = getelementptr inbounds %struct.code_ent, ptr %45, i64 %47
  %49 = getelementptr inbounds %struct.code_ent, ptr %48, i32 0, i32 1
  store i16 1, ptr %49, align 8
  %50 = load i16, ptr %5, align 2
  %51 = trunc i16 %50 to i8
  %52 = load ptr, ptr %4, align 8
  %53 = getelementptr inbounds %struct.lzw_internal_state, ptr %52, i32 0, i32 9
  %54 = load ptr, ptr %53, align 8
  %55 = load i16, ptr %5, align 2
  %56 = zext i16 %55 to i64
  %57 = getelementptr inbounds %struct.code_ent, ptr %54, i64 %56
  %58 = getelementptr inbounds %struct.code_ent, ptr %57, i32 0, i32 2
  store i8 %51, ptr %58, align 2
  %59 = load i16, ptr %5, align 2
  %60 = trunc i16 %59 to i8
  %61 = load ptr, ptr %4, align 8
  %62 = getelementptr inbounds %struct.lzw_internal_state, ptr %61, i32 0, i32 9
  %63 = load ptr, ptr %62, align 8
  %64 = load i16, ptr %5, align 2
  %65 = zext i16 %64 to i64
  %66 = getelementptr inbounds %struct.code_ent, ptr %63, i64 %65
  %67 = getelementptr inbounds %struct.code_ent, ptr %66, i32 0, i32 3
  store i8 %60, ptr %67, align 1
  br label %68

68:                                               ; preds = %35
  %69 = load i16, ptr %5, align 2
  %70 = add i16 %69, 1
  store i16 %70, ptr %5, align 2
  br label %31

71:                                               ; preds = %31
  %72 = load ptr, ptr %4, align 8
  %73 = getelementptr inbounds %struct.lzw_internal_state, ptr %72, i32 0, i32 4
  store i64 0, ptr %73, align 8
  %74 = load ptr, ptr %4, align 8
  %75 = getelementptr inbounds %struct.lzw_internal_state, ptr %74, i32 0, i32 3
  store i64 511, ptr %75, align 8
  %76 = load ptr, ptr %4, align 8
  %77 = getelementptr inbounds %struct.lzw_internal_state, ptr %76, i32 0, i32 9
  %78 = load ptr, ptr %77, align 8
  %79 = getelementptr inbounds %struct.code_ent, ptr %78, i64 258
  %80 = load ptr, ptr %4, align 8
  %81 = getelementptr inbounds %struct.lzw_internal_state, ptr %80, i32 0, i32 7
  store ptr %79, ptr %81, align 8
  %82 = load ptr, ptr %4, align 8
  %83 = getelementptr inbounds %struct.lzw_internal_state, ptr %82, i32 0, i32 9
  %84 = load ptr, ptr %83, align 8
  %85 = getelementptr inbounds %struct.code_ent, ptr %84, i64 256
  %86 = load ptr, ptr %4, align 8
  %87 = getelementptr inbounds %struct.lzw_internal_state, ptr %86, i32 0, i32 6
  store ptr %85, ptr %87, align 8
  %88 = load ptr, ptr %4, align 8
  %89 = getelementptr inbounds %struct.lzw_internal_state, ptr %88, i32 0, i32 9
  %90 = load ptr, ptr %89, align 8
  %91 = load ptr, ptr %4, align 8
  %92 = getelementptr inbounds %struct.lzw_internal_state, ptr %91, i32 0, i32 3
  %93 = load i64, ptr %92, align 8
  %94 = sub nsw i64 %93, 1
  %95 = getelementptr inbounds %struct.code_ent, ptr %90, i64 %94
  %96 = load ptr, ptr %4, align 8
  %97 = getelementptr inbounds %struct.lzw_internal_state, ptr %96, i32 0, i32 8
  store ptr %95, ptr %97, align 8
  %98 = load ptr, ptr %4, align 8
  %99 = load ptr, ptr %3, align 8
  %100 = getelementptr inbounds %struct.lzw_stream_s, ptr %99, i32 0, i32 8
  store ptr %98, ptr %100, align 8
  store i32 0, ptr %2, align 4
  br label %101

101:                                              ; preds = %71, %26, %9
  %102 = load i32, ptr %2, align 4
  ret i32 %102
}