; Function Attrs: nounwind uwtable
define noundef i32 @lzwInit(ptr nocapture noundef writeonly %0) local_unnamed_addr #0 {
  %2 = tail call noalias dereferenceable_or_null(80) ptr @malloc(i64 noundef 80) #7
  %3 = icmp eq ptr %2, null
  br i1 %3, label %24, label %4

4:                                                ; preds = %1
  store i16 9, ptr %2, align 8
  %5 = getelementptr inbounds i8, ptr %2, i64 8
  tail call void @llvm.memset.p0.i64(ptr noundef nonnull align 8 dereferenceable(16) %5, i8 0, i64 16, i1 false)
  %6 = tail call ptr @cli_max_calloc(i64 noundef 16384, i64 noundef 16) #8
  %7 = getelementptr inbounds i8, ptr %2, i64 72
  store ptr %6, ptr %7, align 8
  %8 = icmp eq ptr %6, null
  br i1 %8, label %9, label %.preheader

9:                                                ; preds = %4
  tail call void @free(ptr noundef nonnull %2) #8
  br label %24

.preheader:                                       ; preds = %4, %.preheader
  %indvars.iv = phi i64 [ %indvars.iv.next, %.preheader ], [ 0, %4 ]
  %10 = getelementptr inbounds %struct.code_ent, ptr %6, i64 %indvars.iv
  store ptr null, ptr %10, align 8
  %11 = getelementptr inbounds %struct.code_ent, ptr %6, i64 %indvars.iv, i32 1
  store i16 1, ptr %11, align 8
  %12 = trunc i64 %indvars.iv to i8
  %13 = getelementptr inbounds %struct.code_ent, ptr %6, i64 %indvars.iv, i32 2
  store i8 %12, ptr %13, align 2
  %14 = getelementptr inbounds %struct.code_ent, ptr %6, i64 %indvars.iv, i32 3
  store i8 %12, ptr %14, align 1
  %indvars.iv.next = add nuw nsw i64 %indvars.iv, 1
  %exitcond.not = icmp eq i64 %indvars.iv.next, 256
  br i1 %exitcond.not, label %15, label %.preheader

15:                                               ; preds = %.preheader
  %16 = getelementptr inbounds i8, ptr %2, i64 32
  store i64 0, ptr %16, align 8
  %17 = getelementptr inbounds i8, ptr %2, i64 24
  store i64 511, ptr %17, align 8
  %18 = getelementptr inbounds i8, ptr %6, i64 4128
  %19 = getelementptr inbounds i8, ptr %2, i64 56
  store ptr %18, ptr %19, align 8
  %20 = getelementptr inbounds i8, ptr %6, i64 4096
  %21 = getelementptr inbounds i8, ptr %2, i64 48
  store ptr %20, ptr %21, align 8
  %22 = getelementptr i8, ptr %6, i64 8160
  %23 = getelementptr inbounds i8, ptr %2, i64 64
  store ptr %22, ptr %23, align 8
  br label %24

24:                                               ; preds = %1, %15, %9
  %.sink37 = phi i64 [ 48, %15 ], [ 32, %9 ], [ 32, %1 ]
  %.sink = phi ptr [ %2, %15 ], [ @.str.1, %9 ], [ @.str, %1 ]
  %.032 = phi i32 [ 0, %15 ], [ -4, %9 ], [ -4, %1 ]
  %25 = getelementptr inbounds i8, ptr %0, i64 %.sink37
  store ptr %.sink, ptr %25, align 8
  ret i32 %.032
}